target datalayout = "e-m:e-p270:32:32-p271:32:32-p272:64:64-i64:64-i128:128-f80:128-n8:16:32:64-S128"
target triple = "x86_64-pc-linux-gnu"

; Function Attrs: mustprogress nounwind uwtable
define signext i8 @u_strHasMoreChar32Than_77(ptr noundef %0, i32 noundef %1, i32 noundef %2) #3 {
  %4 = alloca i8, align 1
  %5 = alloca ptr, align 8
  %6 = alloca i32, align 4
  %7 = alloca i32, align 4
  %8 = alloca i16, align 2
  %9 = alloca i32, align 4
  %10 = alloca ptr, align 8
  %11 = alloca i32, align 4
  store ptr %0, ptr %5, align 8, !tbaa !3
  store i32 %1, ptr %6, align 4, !tbaa !8
  store i32 %2, ptr %7, align 4, !tbaa !8
  %12 = load i32, ptr %7, align 4, !tbaa !8
  %13 = icmp slt i32 %12, 0
  br i1 %13, label %14, label %15

14:                                               ; preds = %3
  store i8 1, ptr %4, align 1
  br label %112

15:                                               ; preds = %3
  %16 = load ptr, ptr %5, align 8, !tbaa !3
  %17 = icmp eq ptr %16, null
  br i1 %17, label %21, label %18

18:                                               ; preds = %15
  %19 = load i32, ptr %6, align 4, !tbaa !8
  %20 = icmp slt i32 %19, -1
  br i1 %20, label %21, label %22

21:                                               ; preds = %18, %15
  store i8 0, ptr %4, align 1
  br label %112

22:                                               ; preds = %18
  %23 = load i32, ptr %6, align 4, !tbaa !8
  %24 = icmp eq i32 %23, -1
  br i1 %24, label %25, label %55

25:                                               ; preds = %22
  call void @llvm.lifetime.start.p0(i64 2, ptr %8) #7
  br label %26

26:                                               ; preds = %51, %25
  %27 = load ptr, ptr %5, align 8, !tbaa !3
  %28 = getelementptr inbounds nuw i16, ptr %27, i32 1
  store ptr %28, ptr %5, align 8, !tbaa !3
  %29 = load i16, ptr %27, align 2, !tbaa !10
  store i16 %29, ptr %8, align 2, !tbaa !10
  %30 = zext i16 %29 to i32
  %31 = icmp eq i32 %30, 0
  br i1 %31, label %32, label %33

32:                                               ; preds = %26
  store i8 0, ptr %4, align 1
  store i32 1, ptr %9, align 4
  br label %54

33:                                               ; preds = %26
  %34 = load i32, ptr %7, align 4, !tbaa !8
  %35 = icmp eq i32 %34, 0
  br i1 %35, label %36, label %37

36:                                               ; preds = %33
  store i8 1, ptr %4, align 1
  store i32 1, ptr %9, align 4
  br label %54

37:                                               ; preds = %33
  %38 = load i16, ptr %8, align 2, !tbaa !10
  %39 = zext i16 %38 to i32
  %40 = and i32 %39, -1024
  %41 = icmp eq i32 %40, 55296
  br i1 %41, label %42, label %51

42:                                               ; preds = %37
  %43 = load ptr, ptr %5, align 8, !tbaa !3
  %44 = load i16, ptr %43, align 2, !tbaa !10
  %45 = zext i16 %44 to i32
  %46 = and i32 %45, -1024
  %47 = icmp eq i32 %46, 56320
  br i1 %47, label %48, label %51

48:                                               ; preds = %42
  %49 = load ptr, ptr %5, align 8, !tbaa !3
  %50 = getelementptr inbounds nuw i16, ptr %49, i32 1
  store ptr %50, ptr %5, align 8, !tbaa !3
  br label %51

51:                                               ; preds = %48, %42, %37
  %52 = load i32, ptr %7, align 4, !tbaa !8
  %53 = add nsw i32 %52, -1
  store i32 %53, ptr %7, align 4, !tbaa !8
  br label %26, !llvm.loop !64

54:                                               ; preds = %36, %32
  call void @llvm.lifetime.end.p0(i64 2, ptr %8) #7
  br label %112

55:                                               ; preds = %22
  call void @llvm.lifetime.start.p0(i64 8, ptr %10) #7
  call void @llvm.lifetime.start.p0(i64 4, ptr %11) #7
  %56 = load i32, ptr %6, align 4, !tbaa !8
  %57 = add nsw i32 %56, 1
  %58 = sdiv i32 %57, 2
  %59 = load i32, ptr %7, align 4, !tbaa !8
  %60 = icmp sgt i32 %58, %59
  br i1 %60, label %61, label %62

61:                                               ; preds = %55
  store i8 1, ptr %4, align 1
  store i32 1, ptr %9, align 4
  br label %111

62:                                               ; preds = %55
  %63 = load i32, ptr %6, align 4, !tbaa !8
  %64 = load i32, ptr %7, align 4, !tbaa !8
  %65 = sub nsw i32 %63, %64
  store i32 %65, ptr %11, align 4, !tbaa !8
  %66 = load i32, ptr %11, align 4, !tbaa !8
  %67 = icmp sle i32 %66, 0
  br i1 %67, label %68, label %69

68:                                               ; preds = %62
  store i8 0, ptr %4, align 1
  store i32 1, ptr %9, align 4
  br label %111

69:                                               ; preds = %62
  %70 = load ptr, ptr %5, align 8, !tbaa !3
  %71 = load i32, ptr %6, align 4, !tbaa !8
  %72 = sext i32 %71 to i64
  %73 = getelementptr inbounds i16, ptr %70, i64 %72
  store ptr %73, ptr %10, align 8, !tbaa !3
  br label %74

74:                                               ; preds = %108, %69
  %75 = load ptr, ptr %5, align 8, !tbaa !3
  %76 = load ptr, ptr %10, align 8, !tbaa !3
  %77 = icmp eq ptr %75, %76
  br i1 %77, label %78, label %79

78:                                               ; preds = %74
  store i8 0, ptr %4, align 1
  store i32 1, ptr %9, align 4
  br label %111

79:                                               ; preds = %74
  %80 = load i32, ptr %7, align 4, !tbaa !8
  %81 = icmp eq i32 %80, 0
  br i1 %81, label %82, label %83

82:                                               ; preds = %79
  store i8 1, ptr %4, align 1
  store i32 1, ptr %9, align 4
  br label %111

83:                                               ; preds = %79
  %84 = load ptr, ptr %5, align 8, !tbaa !3
  %85 = getelementptr inbounds nuw i16, ptr %84, i32 1
  store ptr %85, ptr %5, align 8, !tbaa !3
  %86 = load i16, ptr %84, align 2, !tbaa !10
  %87 = zext i16 %86 to i32
  %88 = and i32 %87, -1024
  %89 = icmp eq i32 %88, 55296
  br i1 %89, label %90, label %108

90:                                               ; preds = %83
  %91 = load ptr, ptr %5, align 8, !tbaa !3
  %92 = load ptr, ptr %10, align 8, !tbaa !3
  %93 = icmp ne ptr %91, %92
  br i1 %93, label %94, label %108

94:                                               ; preds = %90
  %95 = load ptr, ptr %5, align 8, !tbaa !3
  %96 = load i16, ptr %95, align 2, !tbaa !10
  %97 = zext i16 %96 to i32
  %98 = and i32 %97, -1024
  %99 = icmp eq i32 %98, 56320
  br i1 %99, label %100, label %108

100:                                              ; preds = %94
  %101 = load ptr, ptr %5, align 8, !tbaa !3
  %102 = getelementptr inbounds nuw i16, ptr %101, i32 1
  store ptr %102, ptr %5, align 8, !tbaa !3
  %103 = load i32, ptr %11, align 4, !tbaa !8
  %104 = add nsw i32 %103, -1
  store i32 %104, ptr %11, align 4, !tbaa !8
  %105 = icmp sle i32 %104, 0
  br i1 %105, label %106, label %107

106:                                              ; preds = %100
  store i8 0, ptr %4, align 1
  store i32 1, ptr %9, align 4
  br label %111

107:                                              ; preds = %100
  br label %108

108:                                              ; preds = %107, %94, %90, %83
  %109 = load i32, ptr %7, align 4, !tbaa !8
  %110 = add nsw i32 %109, -1
  store i32 %110, ptr %7, align 4, !tbaa !8
  br label %74, !llvm.loop !65

111:                                              ; preds = %106, %82, %78, %68, %61
  call void @llvm.lifetime.end.p0(i64 4, ptr %11) #7
  call void @llvm.lifetime.end.p0(i64 8, ptr %10) #7
  br label %112

112:                                              ; preds = %111, %54, %21, %14
  %113 = load i8, ptr %4, align 1
  ret i8 %113
}