; Function Attrs: mustprogress nofree norecurse nosync nounwind willreturn memory(argmem: read) uwtable
define signext range(i8 0, 2) i8 @u_strHasMoreChar32Than_77(ptr noundef readonly %0, i32 noundef %1, i32 noundef %2) local_unnamed_addr #2 {
  %4 = icmp slt i32 %2, 0
  br i1 %4, label %.loopexit, label %5

5:                                                ; preds = %3
  %6 = icmp eq ptr %0, null
  %7 = icmp slt i32 %1, -1
  %or.cond = or i1 %6, %7
  br i1 %or.cond, label %.loopexit, label %8

8:                                                ; preds = %5
  %9 = icmp eq i32 %1, -1
  br i1 %9, label %.preheader, label %27

.preheader:                                       ; preds = %8
  %10 = load i16, ptr %0, align 2, !tbaa !3
  %11 = icmp eq i16 %10, 0
  br i1 %11, label %.loopexit, label %.lr.ph56

.lr.ph56:                                         ; preds = %.preheader, %23
  %12 = phi i16 [ %25, %23 ], [ %10, %.preheader ]
  %.03055 = phi ptr [ %.131, %23 ], [ %0, %.preheader ]
  %.03354 = phi i32 [ %24, %23 ], [ %2, %.preheader ]
  %13 = getelementptr inbounds nuw i8, ptr %.03055, i64 2
  %14 = icmp eq i32 %.03354, 0
  br i1 %14, label %.loopexit, label %15

15:                                               ; preds = %.lr.ph56
  %16 = and i16 %12, -1024
  %17 = icmp eq i16 %16, -10240
  br i1 %17, label %18, label %23

18:                                               ; preds = %15
  %19 = load i16, ptr %13, align 2, !tbaa !3
  %20 = and i16 %19, -1024
  %21 = icmp eq i16 %20, -9216
  %22 = getelementptr inbounds nuw i8, ptr %.03055, i64 4
  %spec.select = select i1 %21, ptr %22, ptr %13
  br label %23

23:                                               ; preds = %18, %15
  %.131 = phi ptr [ %13, %15 ], [ %spec.select, %18 ]
  %24 = add nsw i32 %.03354, -1
  %25 = load i16, ptr %.131, align 2, !tbaa !3
  %26 = icmp eq i16 %25, 0
  br i1 %26, label %.loopexit, label %.lr.ph56, !llvm.loop !55

27:                                               ; preds = %8
  %28 = add nuw nsw i32 %1, 1
  %29 = lshr i32 %28, 1
  %30 = icmp samesign ugt i32 %29, %2
  br i1 %30, label %.loopexit, label %31

31:                                               ; preds = %27
  %32 = sub nsw i32 %1, %2
  %33 = icmp slt i32 %32, 1
  br i1 %33, label %.loopexit, label %34

34:                                               ; preds = %31
  %35 = zext nneg i32 %1 to i64
  %36 = getelementptr inbounds nuw i16, ptr %0, i64 %35
  %37 = icmp eq i32 %1, 0
  br i1 %37, label %.loopexit, label %.lr.ph

.lr.ph:                                           ; preds = %34, %52
  %.049 = phi i32 [ %.1, %52 ], [ %32, %34 ]
  %.23248 = phi ptr [ %.3, %52 ], [ %0, %34 ]
  %.13447 = phi i32 [ %53, %52 ], [ %2, %34 ]
  %38 = icmp eq i32 %.13447, 0
  br i1 %38, label %.loopexit, label %39

39:                                               ; preds = %.lr.ph
  %40 = getelementptr inbounds nuw i8, ptr %.23248, i64 2
  %41 = load i16, ptr %.23248, align 2, !tbaa !3
  %42 = and i16 %41, -1024
  %43 = icmp ne i16 %42, -10240
  %.not = icmp eq ptr %40, %36
  %or.cond44 = select i1 %43, i1 true, i1 %.not
  br i1 %or.cond44, label %52, label %44

44:                                               ; preds = %39
  %45 = load i16, ptr %40, align 2, !tbaa !3
  %46 = and i16 %45, -1024
  %47 = icmp eq i16 %46, -9216
  br i1 %47, label %48, label %52

48:                                               ; preds = %44
  %49 = getelementptr inbounds nuw i8, ptr %.23248, i64 4
  %50 = add nsw i32 %.049, -1
  %51 = icmp slt i32 %.049, 2
  br i1 %51, label %.loopexit, label %52

52:                                               ; preds = %48, %44, %39
  %.3 = phi ptr [ %49, %48 ], [ %40, %44 ], [ %40, %39 ]
  %.1 = phi i32 [ %50, %48 ], [ %.049, %44 ], [ %.049, %39 ]
  %53 = add nsw i32 %.13447, -1
  %54 = icmp eq ptr %.3, %36
  br i1 %54, label %.loopexit, label %.lr.ph, !llvm.loop !56

.loopexit:                                        ; preds = %48, %.lr.ph, %52, %.lr.ph56, %23, %34, %.preheader, %27, %31, %5, %3
  %.028 = phi i8 [ 1, %3 ], [ 0, %5 ], [ 1, %27 ], [ 0, %31 ], [ 0, %.preheader ], [ 0, %34 ], [ 1, %.lr.ph56 ], [ 0, %23 ], [ 0, %48 ], [ 1, %.lr.ph ], [ 0, %52 ]
  ret i8 %.028
}